target datalayout = "e-m:e-p270:32:32-p271:32:32-p272:64:64-i64:64-i128:128-f80:128-n8:16:32:64-S128"
target triple = "x86_64-unknown-linux-gnu"

%struct.aiString = type { i32, [1024 x i8] }

; Function Attrs: mustprogress nounwind uwtable
define linkonce_odr hidden void @_ZN8aiStringC2Ev(ptr noundef nonnull align 4 dereferenceable(1028) %this) unnamed_addr #0 comdat align 2 {
entry:
  %this.addr = alloca ptr, align 8
  store ptr %this, ptr %this.addr, align 8
  %this1 = load ptr, ptr %this.addr, align 8
  %length = getelementptr inbounds %struct.aiString, ptr %this1, i32 0, i32 0
  store i32 0, ptr %length, align 4
  %data = getelementptr inbounds %struct.aiString, ptr %this1, i32 0, i32 1
  %arrayidx = getelementptr inbounds [1024 x i8], ptr %data, i64 0, i64 0
  store i8 0, ptr %arrayidx, align 4
  ret void
}

; Function Attrs: mustprogress uwtable
define hidden void @_Z4ReadI8aiStringET_PN6Assimp8IOStreamE(ptr noalias sret(%struct.aiString) align 4 %agg.result, ptr noundef %stream) #2 {
entry:
  %result.ptr = alloca ptr, align 8
  %stream.addr = alloca ptr, align 8
  store ptr %agg.result, ptr %result.ptr, align 8
  store ptr %stream, ptr %stream.addr, align 8
  call void @_ZN8aiStringC2Ev(ptr noundef nonnull align 4 dereferenceable(1028) %agg.result) #15
  %0 = load ptr, ptr %stream.addr, align 8
  %length = getelementptr inbounds %struct.aiString, ptr %agg.result, i32 0, i32 0
  %vtable = load ptr, ptr %0, align 8
  %vfn = getelementptr inbounds ptr, ptr %vtable, i64 2
  %1 = load ptr, ptr %vfn, align 8
  %call = call noundef i64 %1(ptr noundef nonnull align 8 dereferenceable(8) %0, ptr noundef %length, i64 noundef 4, i64 noundef 1)
  %length1 = getelementptr inbounds %struct.aiString, ptr %agg.result, i32 0, i32 0
  %2 = load i32, ptr %length1, align 4
  %tobool = icmp ne i32 %2, 0
  br i1 %tobool, label %if.then, label %if.end

if.then:                                          ; preds = %entry
  %3 = load ptr, ptr %stream.addr, align 8
  %data = getelementptr inbounds %struct.aiString, ptr %agg.result, i32 0, i32 1
  %arraydecay = getelementptr inbounds [1024 x i8], ptr %data, i64 0, i64 0
  %length2 = getelementptr inbounds %struct.aiString, ptr %agg.result, i32 0, i32 0
  %4 = load i32, ptr %length2, align 4
  %conv = zext i32 %4 to i64
  %vtable3 = load ptr, ptr %3, align 8
  %vfn4 = getelementptr inbounds ptr, ptr %vtable3, i64 2
  %5 = load ptr, ptr %vfn4, align 8
  %call5 = call noundef i64 %5(ptr noundef nonnull align 8 dereferenceable(8) %3, ptr noundef %arraydecay, i64 noundef %conv, i64 noundef 1)
  br label %if.end

if.end:                                           ; preds = %if.then, %entry
  %data6 = getelementptr inbounds %struct.aiString, ptr %agg.result, i32 0, i32 1
  %length7 = getelementptr inbounds %struct.aiString, ptr %agg.result, i32 0, i32 0
  %6 = load i32, ptr %length7, align 4
  %idxprom = zext i32 %6 to i64
  %arrayidx = getelementptr inbounds [1024 x i8], ptr %data6, i64 0, i64 %idxprom
  store i8 0, ptr %arrayidx, align 1
  ret void
}