; Function Attrs: mustprogress uwtable
define hidden void @_Z4ReadI8aiStringET_PN6Assimp8IOStreamE(ptr noalias sret(%struct.aiString) align 4 %agg.result, ptr noundef %stream) local_unnamed_addr #1 {
entry:
  store i32 0, ptr %agg.result, align 4
  %data.i = getelementptr inbounds i8, ptr %agg.result, i64 4
  store i8 0, ptr %data.i, align 4
  %vtable = load ptr, ptr %stream, align 8
  %vfn = getelementptr inbounds i8, ptr %vtable, i64 16
  %0 = load ptr, ptr %vfn, align 8
  %call = tail call noundef i64 %0(ptr noundef nonnull align 8 dereferenceable(8) %stream, ptr noundef nonnull %agg.result, i64 noundef 4, i64 noundef 1)
  %1 = load i32, ptr %agg.result, align 4
  %tobool.not = icmp eq i32 %1, 0
  br i1 %tobool.not, label %if.end, label %if.then

if.then:                                          ; preds = %entry
  %conv = zext i32 %1 to i64
  %vtable3 = load ptr, ptr %stream, align 8
  %vfn4 = getelementptr inbounds i8, ptr %vtable3, i64 16
  %2 = load ptr, ptr %vfn4, align 8
  %call5 = tail call noundef i64 %2(ptr noundef nonnull align 8 dereferenceable(8) %stream, ptr noundef nonnull %data.i, i64 noundef %conv, i64 noundef 1)
  %.pre = load i32, ptr %agg.result, align 4
  %3 = zext i32 %.pre to i64
  br label %if.end

if.end:                                           ; preds = %if.then, %entry
  %idxprom = phi i64 [ %3, %if.then ], [ 0, %entry ]
  %arrayidx = getelementptr inbounds [1024 x i8], ptr %data.i, i64 0, i64 %idxprom
  store i8 0, ptr %arrayidx, align 1
  ret void
}